target datalayout = "e-m:e-p270:32:32-p271:32:32-p272:64:64-i64:64-i128:128-f80:128-n8:16:32:64-S128"
target triple = "x86_64-pc-linux-gnu"

%struct.FT_StreamRec_ = type { ptr, i64, i64, %union.FT_StreamDesc_, %union.FT_StreamDesc_, ptr, ptr, ptr, ptr, ptr }
%union.FT_StreamDesc_ = type { i64 }
%struct.FT_GZipFileRec_ = type { ptr, ptr, ptr, %struct.z_stream_s, i64, [4096 x i8], [4096 x i8], i64, ptr, ptr }
%struct.z_stream_s = type { ptr, i32, i64, ptr, i32, i64, ptr, ptr, ptr, ptr, ptr, i32, i64, i64 }

; Function Attrs: nounwind uwtable
define internal i32 @ft_gzip_file_fill_input(ptr noundef %0) #0 {
  %2 = alloca i32, align 4
  %3 = alloca ptr, align 8
  %4 = alloca ptr, align 8
  %5 = alloca ptr, align 8
  %6 = alloca i64, align 8
  store ptr %0, ptr %3, align 8
  %7 = load ptr, ptr %3, align 8
  %8 = getelementptr inbounds %struct.FT_GZipFileRec_, ptr %7, i32 0, i32 3
  store ptr %8, ptr %4, align 8
  %9 = load ptr, ptr %3, align 8
  %10 = getelementptr inbounds %struct.FT_GZipFileRec_, ptr %9, i32 0, i32 0
  %11 = load ptr, ptr %10, align 8
  store ptr %11, ptr %5, align 8
  %12 = load ptr, ptr %5, align 8
  %13 = getelementptr inbounds %struct.FT_StreamRec_, ptr %12, i32 0, i32 5
  %14 = load ptr, ptr %13, align 8
  %15 = icmp ne ptr %14, null
  br i1 %15, label %16, label %37

16:                                               ; preds = %1
  %17 = load ptr, ptr %5, align 8
  %18 = getelementptr inbounds %struct.FT_StreamRec_, ptr %17, i32 0, i32 5
  %19 = load ptr, ptr %18, align 8
  %20 = load ptr, ptr %5, align 8
  %21 = load ptr, ptr %5, align 8
  %22 = getelementptr inbounds %struct.FT_StreamRec_, ptr %21, i32 0, i32 2
  %23 = load i64, ptr %22, align 8
  %24 = load ptr, ptr %3, align 8
  %25 = getelementptr inbounds %struct.FT_GZipFileRec_, ptr %24, i32 0, i32 5
  %26 = getelementptr inbounds [4096 x i8], ptr %25, i64 0, i64 0
  %27 = call i64 %19(ptr noundef %20, i64 noundef %23, ptr noundef %26, i64 noundef 4096)
  store i64 %27, ptr %6, align 8
  %28 = load i64, ptr %6, align 8
  %29 = icmp eq i64 %28, 0
  br i1 %29, label %30, label %36

30:                                               ; preds = %16
  %31 = load ptr, ptr %3, align 8
  %32 = getelementptr inbounds %struct.FT_GZipFileRec_, ptr %31, i32 0, i32 8
  %33 = load ptr, ptr %32, align 8
  %34 = load ptr, ptr %3, align 8
  %35 = getelementptr inbounds %struct.FT_GZipFileRec_, ptr %34, i32 0, i32 9
  store ptr %33, ptr %35, align 8
  store i32 85, ptr %2, align 4
  br label %84

36:                                               ; preds = %16
  br label %69

37:                                               ; preds = %1
  %38 = load ptr, ptr %5, align 8
  %39 = getelementptr inbounds %struct.FT_StreamRec_, ptr %38, i32 0, i32 1
  %40 = load i64, ptr %39, align 8
  %41 = load ptr, ptr %5, align 8
  %42 = getelementptr inbounds %struct.FT_StreamRec_, ptr %41, i32 0, i32 2
  %43 = load i64, ptr %42, align 8
  %44 = sub i64 %40, %43
  store i64 %44, ptr %6, align 8
  %45 = load i64, ptr %6, align 8
  %46 = icmp ugt i64 %45, 4096
  br i1 %46, label %47, label %48

47:                                               ; preds = %37
  store i64 4096, ptr %6, align 8
  br label %48

48:                                               ; preds = %47, %37
  %49 = load i64, ptr %6, align 8
  %50 = icmp eq i64 %49, 0
  br i1 %50, label %51, label %57

51:                                               ; preds = %48
  %52 = load ptr, ptr %3, align 8
  %53 = getelementptr inbounds %struct.FT_GZipFileRec_, ptr %52, i32 0, i32 8
  %54 = load ptr, ptr %53, align 8
  %55 = load ptr, ptr %3, align 8
  %56 = getelementptr inbounds %struct.FT_GZipFileRec_, ptr %55, i32 0, i32 9
  store ptr %54, ptr %56, align 8
  store i32 85, ptr %2, align 4
  br label %84

57:                                               ; preds = %48
  %58 = load ptr, ptr %3, align 8
  %59 = getelementptr inbounds %struct.FT_GZipFileRec_, ptr %58, i32 0, i32 5
  %60 = getelementptr inbounds [4096 x i8], ptr %59, i64 0, i64 0
  %61 = load ptr, ptr %5, align 8
  %62 = getelementptr inbounds %struct.FT_StreamRec_, ptr %61, i32 0, i32 0
  %63 = load ptr, ptr %62, align 8
  %64 = load ptr, ptr %5, align 8
  %65 = getelementptr inbounds %struct.FT_StreamRec_, ptr %64, i32 0, i32 2
  %66 = load i64, ptr %65, align 8
  %67 = getelementptr inbounds i8, ptr %63, i64 %66
  %68 = load i64, ptr %6, align 8
  call void @llvm.memcpy.p0.p0.i64(ptr align 8 %60, ptr align 1 %67, i64 %68, i1 false)
  br label %69

69:                                               ; preds = %57, %36
  %70 = load i64, ptr %6, align 8
  %71 = load ptr, ptr %5, align 8
  %72 = getelementptr inbounds %struct.FT_StreamRec_, ptr %71, i32 0, i32 2
  %73 = load i64, ptr %72, align 8
  %74 = add i64 %73, %70
  store i64 %74, ptr %72, align 8
  %75 = load ptr, ptr %3, align 8
  %76 = getelementptr inbounds %struct.FT_GZipFileRec_, ptr %75, i32 0, i32 5
  %77 = getelementptr inbounds [4096 x i8], ptr %76, i64 0, i64 0
  %78 = load ptr, ptr %4, align 8
  %79 = getelementptr inbounds %struct.z_stream_s, ptr %78, i32 0, i32 0
  store ptr %77, ptr %79, align 8
  %80 = load i64, ptr %6, align 8
  %81 = trunc i64 %80 to i32
  %82 = load ptr, ptr %4, align 8
  %83 = getelementptr inbounds %struct.z_stream_s, ptr %82, i32 0, i32 1
  store i32 %81, ptr %83, align 8
  store i32 0, ptr %2, align 4
  br label %84

84:                                               ; preds = %69, %51, %30
  %85 = load i32, ptr %2, align 4
  ret i32 %85
}

; Function Attrs: nounwind uwtable
define internal i32 @ft_gzip_file_fill_output(ptr noundef %0) #0 {
  %2 = alloca ptr, align 8
  %3 = alloca ptr, align 8
  %4 = alloca i32, align 4
  %5 = alloca i32, align 4
  store ptr %0, ptr %2, align 8
  %6 = load ptr, ptr %2, align 8
  %7 = getelementptr inbounds %struct.FT_GZipFileRec_, ptr %6, i32 0, i32 3
  store ptr %7, ptr %3, align 8
  store i32 0, ptr %4, align 4
  %8 = load ptr, ptr %2, align 8
  %9 = getelementptr inbounds %struct.FT_GZipFileRec_, ptr %8, i32 0, i32 6
  %10 = getelementptr inbounds [4096 x i8], ptr %9, i64 0, i64 0
  %11 = load ptr, ptr %2, align 8
  %12 = getelementptr inbounds %struct.FT_GZipFileRec_, ptr %11, i32 0, i32 8
  store ptr %10, ptr %12, align 8
  %13 = load ptr, ptr %2, align 8
  %14 = getelementptr inbounds %struct.FT_GZipFileRec_, ptr %13, i32 0, i32 8
  %15 = load ptr, ptr %14, align 8
  %16 = load ptr, ptr %3, align 8
  %17 = getelementptr inbounds %struct.z_stream_s, ptr %16, i32 0, i32 3
  store ptr %15, ptr %17, align 8
  %18 = load ptr, ptr %3, align 8
  %19 = getelementptr inbounds %struct.z_stream_s, ptr %18, i32 0, i32 4
  store i32 4096, ptr %19, align 8
  br label %20

20:                                               ; preds = %67, %1
  %21 = load ptr, ptr %3, align 8
  %22 = getelementptr inbounds %struct.z_stream_s, ptr %21, i32 0, i32 4
  %23 = load i32, ptr %22, align 8
  %24 = icmp ugt i32 %23, 0
  br i1 %24, label %25, label %68

25:                                               ; preds = %20
  %26 = load ptr, ptr %3, align 8
  %27 = getelementptr inbounds %struct.z_stream_s, ptr %26, i32 0, i32 1
  %28 = load i32, ptr %27, align 8
  %29 = icmp eq i32 %28, 0
  br i1 %29, label %30, label %37

30:                                               ; preds = %25
  %31 = load ptr, ptr %2, align 8
  %32 = call i32 @ft_gzip_file_fill_input(ptr noundef %31)
  store i32 %32, ptr %4, align 4
  %33 = load i32, ptr %4, align 4
  %34 = icmp ne i32 %33, 0
  br i1 %34, label %35, label %36

35:                                               ; preds = %30
  br label %68

36:                                               ; preds = %30
  br label %37

37:                                               ; preds = %36, %25
  %38 = load ptr, ptr %3, align 8
  %39 = call i32 @inflate(ptr noundef %38, i32 noundef 0)
  store i32 %39, ptr %5, align 4
  %40 = load i32, ptr %5, align 4
  %41 = icmp eq i32 %40, 1
  br i1 %41, label %42, label %57

42:                                               ; preds = %37
  %43 = load ptr, ptr %3, align 8
  %44 = getelementptr inbounds %struct.z_stream_s, ptr %43, i32 0, i32 3
  %45 = load ptr, ptr %44, align 8
  %46 = load ptr, ptr %2, align 8
  %47 = getelementptr inbounds %struct.FT_GZipFileRec_, ptr %46, i32 0, i32 9
  store ptr %45, ptr %47, align 8
  %48 = load ptr, ptr %2, align 8
  %49 = getelementptr inbounds %struct.FT_GZipFileRec_, ptr %48, i32 0, i32 9
  %50 = load ptr, ptr %49, align 8
  %51 = load ptr, ptr %2, align 8
  %52 = getelementptr inbounds %struct.FT_GZipFileRec_, ptr %51, i32 0, i32 8
  %53 = load ptr, ptr %52, align 8
  %54 = icmp eq ptr %50, %53
  br i1 %54, label %55, label %56

55:                                               ; preds = %42
  store i32 85, ptr %4, align 4
  br label %56

56:                                               ; preds = %55, %42
  br label %68

57:                                               ; preds = %37
  %58 = load i32, ptr %5, align 4
  %59 = icmp ne i32 %58, 0
  br i1 %59, label %60, label %66

60:                                               ; preds = %57
  %61 = load ptr, ptr %2, align 8
  %62 = getelementptr inbounds %struct.FT_GZipFileRec_, ptr %61, i32 0, i32 8
  %63 = load ptr, ptr %62, align 8
  %64 = load ptr, ptr %2, align 8
  %65 = getelementptr inbounds %struct.FT_GZipFileRec_, ptr %64, i32 0, i32 9
  store ptr %63, ptr %65, align 8
  store i32 85, ptr %4, align 4
  br label %68

66:                                               ; preds = %57
  br label %67

67:                                               ; preds = %66
  br label %20, !llvm.loop !4

68:                                               ; preds = %60, %56, %35, %20
  %69 = load i32, ptr %4, align 4
  ret i32 %69
}